target datalayout = "e-m:e-p270:32:32-p271:32:32-p272:64:64-i64:64-i128:128-f80:128-n8:16:32:64-S128"
target triple = "x86_64-pc-linux-gnu"

%struct.SDL_HIDAPI_Device = type { ptr, ptr, ptr, ptr, i16, i16, i16, ptr, %struct.SDL_GUID, i32, i32, i32, i32, i16, i16, i8, i32, i32, i32, ptr, ptr, ptr, ptr, %struct.SDL_AtomicInt, i32, ptr, i8, i8, i8, ptr, i32, ptr, ptr }
%struct.SDL_GUID = type { [16 x i8] }
%struct.SDL_AtomicInt = type { i32 }
%struct.SDL_DriverPS3_Context = type { ptr, ptr, i8, i8, i8, i8, i32, i8, i8, [64 x i8] }

@.str.3 = private unnamed_addr constant [8 x i8] c"ShanWan\00", align 1
@__const.HIDAPI_DriverPS3_InitDevice.data = private unnamed_addr constant [5 x i8] c"\F4B\03\00\00", align 1
@.str.4 = private unnamed_addr constant [65 x i8] c"HIDAPI_DriverPS3_InitDevice(): Couldn't read feature report 0xf2\00", align 1
@.str.5 = private unnamed_addr constant [65 x i8] c"HIDAPI_DriverPS3_InitDevice(): Couldn't read feature report 0xf5\00", align 1
@.str.6 = private unnamed_addr constant [15 x i8] c"PS3 Controller\00", align 1

; Function Attrs: nounwind uwtable
define internal i32 @ReadFeatureReport(ptr noundef %0, i8 noundef zeroext %1, ptr noundef %2, i64 noundef %3) #0 {
  %5 = alloca ptr, align 8
  %6 = alloca i8, align 1
  %7 = alloca ptr, align 8
  %8 = alloca i64, align 8
  store ptr %0, ptr %5, align 8
  store i8 %1, ptr %6, align 1
  store ptr %2, ptr %7, align 8
  store i64 %3, ptr %8, align 8
  %9 = load ptr, ptr %7, align 8
  %10 = load i64, ptr %8, align 8
  call void @llvm.memset.p0.i64(ptr align 1 %9, i8 0, i64 %10, i1 false)
  %11 = load i8, ptr %6, align 1
  %12 = load ptr, ptr %7, align 8
  %13 = getelementptr inbounds i8, ptr %12, i64 0
  store i8 %11, ptr %13, align 1
  %14 = load ptr, ptr %5, align 8
  %15 = load ptr, ptr %7, align 8
  %16 = load i64, ptr %8, align 8
  %17 = call i32 @SDL_hid_get_feature_report_REAL(ptr noundef %14, ptr noundef %15, i64 noundef %16)
  ret i32 %17
}

; Function Attrs: nounwind uwtable
define internal i32 @SendFeatureReport(ptr noundef %0, ptr noundef %1, i64 noundef %2) #0 {
  %4 = alloca ptr, align 8
  %5 = alloca ptr, align 8
  %6 = alloca i64, align 8
  store ptr %0, ptr %4, align 8
  store ptr %1, ptr %5, align 8
  store i64 %2, ptr %6, align 8
  %7 = load ptr, ptr %4, align 8
  %8 = load ptr, ptr %5, align 8
  %9 = load i64, ptr %6, align 8
  %10 = call i32 @SDL_hid_send_feature_report_REAL(ptr noundef %7, ptr noundef %8, i64 noundef %9)
  ret i32 %10
}

; Function Attrs: nounwind uwtable
define internal zeroext i1 @HIDAPI_DriverPS3_InitDevice(ptr noundef %0) #0 {
  %2 = alloca i1, align 1
  %3 = alloca ptr, align 8
  %4 = alloca ptr, align 8
  %5 = alloca i8, align 1
  %6 = alloca i32, align 4
  %7 = alloca [5 x i8], align 1
  %8 = alloca [64 x i8], align 16
  %9 = alloca i32, align 4
  store ptr %0, ptr %3, align 8
  call void @llvm.lifetime.start.p0(i64 8, ptr %4) #7
  call void @llvm.lifetime.start.p0(i64 1, ptr %5) #7
  store i8 0, ptr %5, align 1
  %10 = load ptr, ptr %3, align 8
  %11 = getelementptr inbounds nuw %struct.SDL_HIDAPI_Device, ptr %10, i32 0, i32 4
  %12 = load i16, ptr %11, align 8
  %13 = zext i16 %12 to i32
  %14 = icmp eq i32 %13, 1356
  br i1 %14, label %15, label %22

15:                                               ; preds = %1
  %16 = load ptr, ptr %3, align 8
  %17 = getelementptr inbounds nuw %struct.SDL_HIDAPI_Device, ptr %16, i32 0, i32 0
  %18 = load ptr, ptr %17, align 8
  %19 = call i32 @SDL_strncasecmp_REAL(ptr noundef %18, ptr noundef @.str.3, i64 noundef 7)
  %20 = icmp eq i32 %19, 0
  br i1 %20, label %21, label %22

21:                                               ; preds = %15
  store i8 1, ptr %5, align 1
  br label %22

22:                                               ; preds = %21, %15, %1
  %23 = load ptr, ptr %3, align 8
  %24 = getelementptr inbounds nuw %struct.SDL_HIDAPI_Device, ptr %23, i32 0, i32 4
  %25 = load i16, ptr %24, align 8
  %26 = zext i16 %25 to i32
  %27 = icmp eq i32 %26, 9571
  br i1 %27, label %34, label %28

28:                                               ; preds = %22
  %29 = load ptr, ptr %3, align 8
  %30 = getelementptr inbounds nuw %struct.SDL_HIDAPI_Device, ptr %29, i32 0, i32 4
  %31 = load i16, ptr %30, align 8
  %32 = zext i16 %31 to i32
  %33 = icmp eq i32 %32, 8380
  br i1 %33, label %34, label %35

34:                                               ; preds = %28, %22
  store i8 1, ptr %5, align 1
  br label %35

35:                                               ; preds = %34, %28
  %36 = call noalias ptr @SDL_calloc_REAL(i64 noundef 1, i64 noundef 96) #8
  store ptr %36, ptr %4, align 8
  %37 = load ptr, ptr %4, align 8
  %38 = icmp ne ptr %37, null
  br i1 %38, label %40, label %39

39:                                               ; preds = %35
  store i1 false, ptr %2, align 1
  store i32 1, ptr %6, align 4
  br label %108

40:                                               ; preds = %35
  %41 = load ptr, ptr %3, align 8
  %42 = load ptr, ptr %4, align 8
  %43 = getelementptr inbounds nuw %struct.SDL_DriverPS3_Context, ptr %42, i32 0, i32 0
  store ptr %41, ptr %43, align 8
  %44 = load i8, ptr %5, align 1, !range !3, !noundef !4
  %45 = trunc i8 %44 to i1
  %46 = load ptr, ptr %4, align 8
  %47 = getelementptr inbounds nuw %struct.SDL_DriverPS3_Context, ptr %46, i32 0, i32 2
  %48 = zext i1 %45 to i8
  store i8 %48, ptr %47, align 8
  %49 = load ptr, ptr %4, align 8
  %50 = getelementptr inbounds nuw %struct.SDL_DriverPS3_Context, ptr %49, i32 0, i32 3
  store i8 1, ptr %50, align 1
  %51 = load ptr, ptr %4, align 8
  %52 = load ptr, ptr %3, align 8
  %53 = getelementptr inbounds nuw %struct.SDL_HIDAPI_Device, ptr %52, i32 0, i32 20
  store ptr %51, ptr %53, align 8
  %54 = load ptr, ptr %3, align 8
  %55 = getelementptr inbounds nuw %struct.SDL_HIDAPI_Device, ptr %54, i32 0, i32 15
  %56 = load i8, ptr %55, align 4, !range !3, !noundef !4
  %57 = trunc i8 %56 to i1
  br i1 %57, label %58, label %64

58:                                               ; preds = %40
  call void @llvm.lifetime.start.p0(i64 5, ptr %7) #7
  call void @llvm.memcpy.p0.p0.i64(ptr align 1 %7, ptr align 1 @__const.HIDAPI_DriverPS3_InitDevice.data, i64 5, i1 false)
  %59 = load ptr, ptr %3, align 8
  %60 = getelementptr inbounds nuw %struct.SDL_HIDAPI_Device, ptr %59, i32 0, i32 22
  %61 = load ptr, ptr %60, align 8
  %62 = getelementptr inbounds [5 x i8], ptr %7, i64 0, i64 0
  %63 = call i32 @SendFeatureReport(ptr noundef %61, ptr noundef %62, i64 noundef 5)
  call void @llvm.lifetime.end.p0(i64 5, ptr %7) #7
  br label %64

64:                                               ; preds = %58, %40
  %65 = load ptr, ptr %3, align 8
  %66 = getelementptr inbounds nuw %struct.SDL_HIDAPI_Device, ptr %65, i32 0, i32 15
  %67 = load i8, ptr %66, align 4, !range !3, !noundef !4
  %68 = trunc i8 %67 to i1
  br i1 %68, label %102, label %69

69:                                               ; preds = %64
  call void @llvm.lifetime.start.p0(i64 64, ptr %8) #7
  call void @llvm.lifetime.start.p0(i64 4, ptr %9) #7
  %70 = load ptr, ptr %3, align 8
  %71 = getelementptr inbounds nuw %struct.SDL_HIDAPI_Device, ptr %70, i32 0, i32 22
  %72 = load ptr, ptr %71, align 8
  %73 = getelementptr inbounds [64 x i8], ptr %8, i64 0, i64 0
  %74 = call i32 @ReadFeatureReport(ptr noundef %72, i8 noundef zeroext -14, ptr noundef %73, i64 noundef 17)
  store i32 %74, ptr %9, align 4
  %75 = load i32, ptr %9, align 4
  %76 = icmp slt i32 %75, 0
  br i1 %76, label %77, label %78

77:                                               ; preds = %69
  call void (i32, ptr, ...) @SDL_LogDebug_REAL(i32 noundef 7, ptr noundef @.str.4)
  store i1 false, ptr %2, align 1
  store i32 1, ptr %6, align 4
  br label %99

78:                                               ; preds = %69
  %79 = load ptr, ptr %3, align 8
  %80 = getelementptr inbounds nuw %struct.SDL_HIDAPI_Device, ptr %79, i32 0, i32 22
  %81 = load ptr, ptr %80, align 8
  %82 = getelementptr inbounds [64 x i8], ptr %8, i64 0, i64 0
  %83 = call i32 @ReadFeatureReport(ptr noundef %81, i8 noundef zeroext -11, ptr noundef %82, i64 noundef 8)
  store i32 %83, ptr %9, align 4
  %84 = load i32, ptr %9, align 4
  %85 = icmp slt i32 %84, 0
  br i1 %85, label %86, label %87

86:                                               ; preds = %78
  call void (i32, ptr, ...) @SDL_LogDebug_REAL(i32 noundef 7, ptr noundef @.str.5)
  store i1 false, ptr %2, align 1
  store i32 1, ptr %6, align 4
  br label %99

87:                                               ; preds = %78
  %88 = load ptr, ptr %4, align 8
  %89 = getelementptr inbounds nuw %struct.SDL_DriverPS3_Context, ptr %88, i32 0, i32 2
  %90 = load i8, ptr %89, align 8, !range !3, !noundef !4
  %91 = trunc i8 %90 to i1
  br i1 %91, label %98, label %92

92:                                               ; preds = %87
  %93 = load ptr, ptr %3, align 8
  %94 = getelementptr inbounds nuw %struct.SDL_HIDAPI_Device, ptr %93, i32 0, i32 22
  %95 = load ptr, ptr %94, align 8
  %96 = getelementptr inbounds [64 x i8], ptr %8, i64 0, i64 0
  %97 = call i32 @SDL_hid_write_REAL(ptr noundef %95, ptr noundef %96, i64 noundef 1)
  br label %98

98:                                               ; preds = %92, %87
  store i32 0, ptr %6, align 4
  br label %99

99:                                               ; preds = %98, %86, %77
  call void @llvm.lifetime.end.p0(i64 4, ptr %9) #7
  call void @llvm.lifetime.end.p0(i64 64, ptr %8) #7
  %100 = load i32, ptr %6, align 4
  switch i32 %100, label %108 [
    i32 0, label %101
  ]

101:                                              ; preds = %99
  br label %102

102:                                              ; preds = %101, %64
  %103 = load ptr, ptr %3, align 8
  %104 = getelementptr inbounds nuw %struct.SDL_HIDAPI_Device, ptr %103, i32 0, i32 17
  store i32 4, ptr %104, align 4
  %105 = load ptr, ptr %3, align 8
  call void @HIDAPI_SetDeviceName(ptr noundef %105, ptr noundef @.str.6)
  %106 = load ptr, ptr %3, align 8
  %107 = call zeroext i1 @HIDAPI_JoystickConnected(ptr noundef %106, ptr noundef null)
  store i1 %107, ptr %2, align 1
  store i32 1, ptr %6, align 4
  br label %108

108:                                              ; preds = %102, %99, %39
  call void @llvm.lifetime.end.p0(i64 1, ptr %5) #7
  call void @llvm.lifetime.end.p0(i64 8, ptr %4) #7
  %109 = load i1, ptr %2, align 1
  ret i1 %109
}