; Function Attrs: nounwind uwtable
define internal zeroext i1 @HIDAPI_DriverPS3_InitDevice(ptr noundef %0) #0 {
  %2 = alloca [5 x i8], align 1
  %3 = alloca [64 x i8], align 16
  %4 = getelementptr inbounds nuw i8, ptr %0, i64 32
  %5 = load i16, ptr %4, align 8
  %6 = icmp eq i16 %5, 1356
  br i1 %6, label %7, label %11

7:                                                ; preds = %1
  %8 = load ptr, ptr %0, align 8
  %9 = tail call i32 @SDL_strncasecmp_REAL(ptr noundef %8, ptr noundef nonnull @.str.3, i64 noundef 7) #10
  %10 = icmp eq i32 %9, 0
  %spec.select = zext i1 %10 to i8
  %.pr = load i16, ptr %4, align 8
  br label %11

11:                                               ; preds = %7, %1
  %12 = phi i16 [ %.pr, %7 ], [ %5, %1 ]
  %.025 = phi i8 [ %spec.select, %7 ], [ 0, %1 ]
  switch i16 %12, label %14 [
    i16 9571, label %13
    i16 8380, label %13
  ]

13:                                               ; preds = %11, %11
  br label %14

14:                                               ; preds = %11, %13
  %.1 = phi i8 [ 1, %13 ], [ %.025, %11 ]
  %15 = tail call noalias dereferenceable_or_null(96) ptr @SDL_calloc_REAL(i64 noundef 1, i64 noundef 96) #11
  %.not = icmp eq ptr %15, null
  br i1 %.not, label %46, label %16

16:                                               ; preds = %14
  store ptr %0, ptr %15, align 8
  %17 = getelementptr inbounds nuw i8, ptr %15, i64 16
  store i8 %.1, ptr %17, align 8
  %18 = getelementptr inbounds nuw i8, ptr %15, i64 17
  store i8 1, ptr %18, align 1
  %19 = getelementptr inbounds nuw i8, ptr %0, i64 112
  store ptr %15, ptr %19, align 8
  %20 = getelementptr inbounds nuw i8, ptr %0, i64 84
  %21 = load i8, ptr %20, align 4, !range !3, !noundef !4
  %22 = trunc nuw i8 %21 to i1
  br i1 %22, label %23, label %.thread

23:                                               ; preds = %16
  call void @llvm.lifetime.start.p0(i64 5, ptr nonnull %2) #10
  call void @llvm.memcpy.p0.p0.i64(ptr noundef nonnull align 1 dereferenceable(5) %2, ptr noundef nonnull align 1 dereferenceable(5) @__const.HIDAPI_DriverPS3_InitDevice.data, i64 5, i1 false)
  %24 = getelementptr inbounds nuw i8, ptr %0, i64 128
  %25 = load ptr, ptr %24, align 8
  %26 = call i32 @SDL_hid_send_feature_report_REAL(ptr noundef %25, ptr noundef nonnull %2, i64 noundef 5) #10
  call void @llvm.lifetime.end.p0(i64 5, ptr nonnull %2) #10
  %.pre = load i8, ptr %20, align 4, !range !3
  %27 = trunc nuw i8 %.pre to i1
  br i1 %27, label %43, label %.thread

.thread:                                          ; preds = %16, %23
  call void @llvm.lifetime.start.p0(i64 64, ptr nonnull %3) #10
  %28 = getelementptr inbounds nuw i8, ptr %0, i64 128
  %29 = load ptr, ptr %28, align 8
  call void @llvm.memset.p0.i64(ptr noundef nonnull align 16 dereferenceable(17) %3, i8 0, i64 17, i1 false)
  store i8 -14, ptr %3, align 16
  %30 = call i32 @SDL_hid_get_feature_report_REAL(ptr noundef %29, ptr noundef nonnull %3, i64 noundef 17) #10
  %31 = icmp slt i32 %30, 0
  br i1 %31, label %.critedge, label %32

32:                                               ; preds = %.thread
  %33 = load ptr, ptr %28, align 8
  store i64 245, ptr %3, align 16
  %34 = call i32 @SDL_hid_get_feature_report_REAL(ptr noundef %33, ptr noundef nonnull %3, i64 noundef 8) #10
  %35 = icmp slt i32 %34, 0
  br i1 %35, label %.critedge, label %36

36:                                               ; preds = %32
  %37 = load i8, ptr %17, align 8, !range !3, !noundef !4
  %38 = trunc nuw i8 %37 to i1
  br i1 %38, label %42, label %39

39:                                               ; preds = %36
  %40 = load ptr, ptr %28, align 8
  %41 = call i32 @SDL_hid_write_REAL(ptr noundef %40, ptr noundef nonnull %3, i64 noundef 1) #10
  br label %42

42:                                               ; preds = %36, %39
  call void @llvm.lifetime.end.p0(i64 64, ptr nonnull %3) #10
  br label %43

43:                                               ; preds = %42, %23
  %44 = getelementptr inbounds nuw i8, ptr %0, i64 92
  store i32 4, ptr %44, align 4
  call void @HIDAPI_SetDeviceName(ptr noundef nonnull %0, ptr noundef nonnull @.str.6) #10
  %45 = call zeroext i1 @HIDAPI_JoystickConnected(ptr noundef nonnull %0, ptr noundef null) #10
  br label %46

.critedge:                                        ; preds = %32, %.thread
  %.str.5.sink = phi ptr [ @.str.4, %.thread ], [ @.str.5, %32 ]
  call void (i32, ptr, ...) @SDL_LogDebug_REAL(i32 noundef 7, ptr noundef nonnull %.str.5.sink) #10
  call void @llvm.lifetime.end.p0(i64 64, ptr nonnull %3) #10
  br label %46

46:                                               ; preds = %.critedge, %14, %43
  %.026 = phi i1 [ %45, %43 ], [ false, %14 ], [ false, %.critedge ]
  ret i1 %.026
}